; Function Attrs: mustprogress uwtable
define void @_ZN6casadi8to_sliceERKNS_6MatrixIxEEb(ptr dead_on_unwind noalias writable sret(%"class.casadi::Slice") align 8 %0, ptr noundef nonnull align 8 dereferenceable(40) %1, i1 noundef zeroext %2) local_unnamed_addr #4 {
  %4 = getelementptr inbounds i8, ptr %1, i64 8
  %5 = tail call noundef zeroext i1 @_ZNK6casadi8Sparsity9is_scalarEb(ptr noundef nonnull align 8 dereferenceable(8) %4, i1 noundef zeroext false)
  br i1 %5, label %6, label %8

6:                                                ; preds = %3
  %7 = tail call noundef i64 @_ZNK6casadi6MatrixIxE6scalarEv(ptr noundef nonnull align 8 dereferenceable(40) %1)
  tail call void @_ZN6casadi5SliceC1Exb(ptr noundef nonnull align 8 dereferenceable(24) %0, i64 noundef %7, i1 noundef zeroext %2)
  br label %10

8:                                                ; preds = %3
  %9 = getelementptr inbounds i8, ptr %1, i64 16
  tail call void @_ZN6casadi8to_sliceERKSt6vectorIxSaIxEEb(ptr dead_on_unwind writable sret(%"class.casadi::Slice") align 8 %0, ptr noundef nonnull align 8 dereferenceable(24) %9, i1 noundef zeroext %2)
  br label %10

10:                                               ; preds = %8, %6
  ret void
}